Archive member included to satisfy reference by file (symbol)

c:/users/lisha/.eide/tools/gcc_arm/bin/../lib/gcc/arm-none-eabi/8.3.1/../../../../arm-none-eabi/lib\libc.a(lib_a-exit.o)
                              c:/users/lisha/.eide/tools/gcc_arm/bin/../lib/gcc/arm-none-eabi/8.3.1/../../../../arm-none-eabi/lib/crt0.o (exit)
c:/users/lisha/.eide/tools/gcc_arm/bin/../lib/gcc/arm-none-eabi/8.3.1/../../../../arm-none-eabi/lib\libc.a(lib_a-impure.o)
                              c:/users/lisha/.eide/tools/gcc_arm/bin/../lib/gcc/arm-none-eabi/8.3.1/../../../../arm-none-eabi/lib\libc.a(lib_a-exit.o) (_global_impure_ptr)
c:/users/lisha/.eide/tools/gcc_arm/bin/../lib/gcc/arm-none-eabi/8.3.1/../../../../arm-none-eabi/lib\libc.a(lib_a-init.o)
                              c:/users/lisha/.eide/tools/gcc_arm/bin/../lib/gcc/arm-none-eabi/8.3.1/../../../../arm-none-eabi/lib/crt0.o (__libc_init_array)
c:/users/lisha/.eide/tools/gcc_arm/bin/../lib/gcc/arm-none-eabi/8.3.1/../../../../arm-none-eabi/lib\libc.a(lib_a-memset.o)
                              c:/users/lisha/.eide/tools/gcc_arm/bin/../lib/gcc/arm-none-eabi/8.3.1/../../../../arm-none-eabi/lib/crt0.o (memset)
c:/users/lisha/.eide/tools/gcc_arm/bin/../lib/gcc/arm-none-eabi/8.3.1/../../../../arm-none-eabi/lib\libc.a(lib_a-__call_atexit.o)
                              c:/users/lisha/.eide/tools/gcc_arm/bin/../lib/gcc/arm-none-eabi/8.3.1/../../../../arm-none-eabi/lib\libc.a(lib_a-exit.o) (__call_exitprocs)
c:/users/lisha/.eide/tools/gcc_arm/bin/../lib/gcc/arm-none-eabi/8.3.1/../../../../arm-none-eabi/lib\libc.a(lib_a-atexit.o)
                              c:/users/lisha/.eide/tools/gcc_arm/bin/../lib/gcc/arm-none-eabi/8.3.1/../../../../arm-none-eabi/lib\libc.a(lib_a-__call_atexit.o) (atexit)
c:/users/lisha/.eide/tools/gcc_arm/bin/../lib/gcc/arm-none-eabi/8.3.1/../../../../arm-none-eabi/lib\libc.a(lib_a-fini.o)
                              c:/users/lisha/.eide/tools/gcc_arm/bin/../lib/gcc/arm-none-eabi/8.3.1/../../../../arm-none-eabi/lib\libc.a(lib_a-__call_atexit.o) (__libc_fini_array)
c:/users/lisha/.eide/tools/gcc_arm/bin/../lib/gcc/arm-none-eabi/8.3.1/../../../../arm-none-eabi/lib\libc.a(lib_a-lock.o)
                              c:/users/lisha/.eide/tools/gcc_arm/bin/../lib/gcc/arm-none-eabi/8.3.1/../../../../arm-none-eabi/lib\libc.a(lib_a-__call_atexit.o) (__retarget_lock_acquire_recursive)
c:/users/lisha/.eide/tools/gcc_arm/bin/../lib/gcc/arm-none-eabi/8.3.1/../../../../arm-none-eabi/lib\libc.a(lib_a-__atexit.o)
                              c:/users/lisha/.eide/tools/gcc_arm/bin/../lib/gcc/arm-none-eabi/8.3.1/../../../../arm-none-eabi/lib\libc.a(lib_a-atexit.o) (__register_exitproc)
c:/users/lisha/.eide/tools/gcc_arm/bin/../lib/gcc/arm-none-eabi/8.3.1/../../../../arm-none-eabi/lib\libnosys.a(_exit.o)
                              c:/users/lisha/.eide/tools/gcc_arm/bin/../lib/gcc/arm-none-eabi/8.3.1/../../../../arm-none-eabi/lib\libc.a(lib_a-exit.o) (_exit)
c:/users/lisha/.eide/tools/gcc_arm/bin/../lib/gcc/arm-none-eabi/8.3.1\libgcc.a(_arm_addsubsf3.o)
                              out/./arch/arm/stm32f103c8t6/USART.o (__aeabi_fsub)
c:/users/lisha/.eide/tools/gcc_arm/bin/../lib/gcc/arm-none-eabi/8.3.1\libgcc.a(_arm_fixunssfsi.o)
                              out/./arch/arm/stm32f103c8t6/USART.o (__aeabi_f2uiz)

Allocating common symbols
Common symbol       size              file

__lock___atexit_recursive_mutex
                    0x1               c:/users/lisha/.eide/tools/gcc_arm/bin/../lib/gcc/arm-none-eabi/8.3.1/../../../../arm-none-eabi/lib\libc.a(lib_a-lock.o)
__lock___arc4random_mutex
                    0x1               c:/users/lisha/.eide/tools/gcc_arm/bin/../lib/gcc/arm-none-eabi/8.3.1/../../../../arm-none-eabi/lib\libc.a(lib_a-lock.o)
__lock___env_recursive_mutex
                    0x1               c:/users/lisha/.eide/tools/gcc_arm/bin/../lib/gcc/arm-none-eabi/8.3.1/../../../../arm-none-eabi/lib\libc.a(lib_a-lock.o)
__lock___sinit_recursive_mutex
                    0x1               c:/users/lisha/.eide/tools/gcc_arm/bin/../lib/gcc/arm-none-eabi/8.3.1/../../../../arm-none-eabi/lib\libc.a(lib_a-lock.o)
__lock___malloc_recursive_mutex
                    0x1               c:/users/lisha/.eide/tools/gcc_arm/bin/../lib/gcc/arm-none-eabi/8.3.1/../../../../arm-none-eabi/lib\libc.a(lib_a-lock.o)
__lock___at_quick_exit_mutex
                    0x1               c:/users/lisha/.eide/tools/gcc_arm/bin/../lib/gcc/arm-none-eabi/8.3.1/../../../../arm-none-eabi/lib\libc.a(lib_a-lock.o)
__lock___dd_hash_mutex
                    0x1               c:/users/lisha/.eide/tools/gcc_arm/bin/../lib/gcc/arm-none-eabi/8.3.1/../../../../arm-none-eabi/lib\libc.a(lib_a-lock.o)
__lock___tz_mutex   0x1               c:/users/lisha/.eide/tools/gcc_arm/bin/../lib/gcc/arm-none-eabi/8.3.1/../../../../arm-none-eabi/lib\libc.a(lib_a-lock.o)
__lock___sfp_recursive_mutex
                    0x1               c:/users/lisha/.eide/tools/gcc_arm/bin/../lib/gcc/arm-none-eabi/8.3.1/../../../../arm-none-eabi/lib\libc.a(lib_a-lock.o)

Discarded input sections

 .text          0x00000000        0x0 c:/users/lisha/.eide/tools/gcc_arm/bin/../lib/gcc/arm-none-eabi/8.3.1/crti.o
 .data          0x00000000        0x0 c:/users/lisha/.eide/tools/gcc_arm/bin/../lib/gcc/arm-none-eabi/8.3.1/crti.o
 .bss           0x00000000        0x0 c:/users/lisha/.eide/tools/gcc_arm/bin/../lib/gcc/arm-none-eabi/8.3.1/crti.o
 .data          0x00000000        0x4 c:/users/lisha/.eide/tools/gcc_arm/bin/../lib/gcc/arm-none-eabi/8.3.1/crtbegin.o
 .text          0x00000000      0x114 c:/users/lisha/.eide/tools/gcc_arm/bin/../lib/gcc/arm-none-eabi/8.3.1/../../../../arm-none-eabi/lib/crt0.o
 .data          0x00000000        0x0 c:/users/lisha/.eide/tools/gcc_arm/bin/../lib/gcc/arm-none-eabi/8.3.1/../../../../arm-none-eabi/lib/crt0.o
 .bss           0x00000000        0x0 c:/users/lisha/.eide/tools/gcc_arm/bin/../lib/gcc/arm-none-eabi/8.3.1/../../../../arm-none-eabi/lib/crt0.o
 .ARM.extab     0x00000000        0x0 c:/users/lisha/.eide/tools/gcc_arm/bin/../lib/gcc/arm-none-eabi/8.3.1/../../../../arm-none-eabi/lib/crt0.o
 .ARM.exidx     0x00000000        0x8 c:/users/lisha/.eide/tools/gcc_arm/bin/../lib/gcc/arm-none-eabi/8.3.1/../../../../arm-none-eabi/lib/crt0.o
 .ARM.attributes
                0x00000000       0x1a c:/users/lisha/.eide/tools/gcc_arm/bin/../lib/gcc/arm-none-eabi/8.3.1/../../../../arm-none-eabi/lib/crt0.o
 .text          0x00000000        0x0 c:/users/lisha/.eide/tools/gcc_arm/bin/../lib/gcc/arm-none-eabi/8.3.1/../../../../arm-none-eabi/lib\libc.a(lib_a-exit.o)
 .data          0x00000000        0x0 c:/users/lisha/.eide/tools/gcc_arm/bin/../lib/gcc/arm-none-eabi/8.3.1/../../../../arm-none-eabi/lib\libc.a(lib_a-exit.o)
 .bss           0x00000000        0x0 c:/users/lisha/.eide/tools/gcc_arm/bin/../lib/gcc/arm-none-eabi/8.3.1/../../../../arm-none-eabi/lib\libc.a(lib_a-exit.o)
 .text.exit     0x00000000       0x34 c:/users/lisha/.eide/tools/gcc_arm/bin/../lib/gcc/arm-none-eabi/8.3.1/../../../../arm-none-eabi/lib\libc.a(lib_a-exit.o)
 .debug_frame   0x00000000       0x28 c:/users/lisha/.eide/tools/gcc_arm/bin/../lib/gcc/arm-none-eabi/8.3.1/../../../../arm-none-eabi/lib\libc.a(lib_a-exit.o)
 .ARM.attributes
                0x00000000       0x2a c:/users/lisha/.eide/tools/gcc_arm/bin/../lib/gcc/arm-none-eabi/8.3.1/../../../../arm-none-eabi/lib\libc.a(lib_a-exit.o)
 .text          0x00000000        0x0 c:/users/lisha/.eide/tools/gcc_arm/bin/../lib/gcc/arm-none-eabi/8.3.1/../../../../arm-none-eabi/lib\libc.a(lib_a-impure.o)
 .data          0x00000000        0x0 c:/users/lisha/.eide/tools/gcc_arm/bin/../lib/gcc/arm-none-eabi/8.3.1/../../../../arm-none-eabi/lib\libc.a(lib_a-impure.o)
 .bss           0x00000000        0x0 c:/users/lisha/.eide/tools/gcc_arm/bin/../lib/gcc/arm-none-eabi/8.3.1/../../../../arm-none-eabi/lib\libc.a(lib_a-impure.o)
 .data._impure_ptr
                0x00000000        0x4 c:/users/lisha/.eide/tools/gcc_arm/bin/../lib/gcc/arm-none-eabi/8.3.1/../../../../arm-none-eabi/lib\libc.a(lib_a-impure.o)
 .text          0x00000000        0x0 c:/users/lisha/.eide/tools/gcc_arm/bin/../lib/gcc/arm-none-eabi/8.3.1/../../../../arm-none-eabi/lib\libc.a(lib_a-init.o)
 .data          0x00000000        0x0 c:/users/lisha/.eide/tools/gcc_arm/bin/../lib/gcc/arm-none-eabi/8.3.1/../../../../arm-none-eabi/lib\libc.a(lib_a-init.o)
 .bss           0x00000000        0x0 c:/users/lisha/.eide/tools/gcc_arm/bin/../lib/gcc/arm-none-eabi/8.3.1/../../../../arm-none-eabi/lib\libc.a(lib_a-init.o)
 .text          0x00000000        0x0 c:/users/lisha/.eide/tools/gcc_arm/bin/../lib/gcc/arm-none-eabi/8.3.1/../../../../arm-none-eabi/lib\libc.a(lib_a-memset.o)
 .data          0x00000000        0x0 c:/users/lisha/.eide/tools/gcc_arm/bin/../lib/gcc/arm-none-eabi/8.3.1/../../../../arm-none-eabi/lib\libc.a(lib_a-memset.o)
 .bss           0x00000000        0x0 c:/users/lisha/.eide/tools/gcc_arm/bin/../lib/gcc/arm-none-eabi/8.3.1/../../../../arm-none-eabi/lib\libc.a(lib_a-memset.o)
 .text.memset   0x00000000      0x118 c:/users/lisha/.eide/tools/gcc_arm/bin/../lib/gcc/arm-none-eabi/8.3.1/../../../../arm-none-eabi/lib\libc.a(lib_a-memset.o)
 .debug_frame   0x00000000       0x48 c:/users/lisha/.eide/tools/gcc_arm/bin/../lib/gcc/arm-none-eabi/8.3.1/../../../../arm-none-eabi/lib\libc.a(lib_a-memset.o)
 .ARM.attributes
                0x00000000       0x2a c:/users/lisha/.eide/tools/gcc_arm/bin/../lib/gcc/arm-none-eabi/8.3.1/../../../../arm-none-eabi/lib\libc.a(lib_a-memset.o)
 .text          0x00000000        0x0 c:/users/lisha/.eide/tools/gcc_arm/bin/../lib/gcc/arm-none-eabi/8.3.1/../../../../arm-none-eabi/lib\libc.a(lib_a-__call_atexit.o)
 .data          0x00000000        0x0 c:/users/lisha/.eide/tools/gcc_arm/bin/../lib/gcc/arm-none-eabi/8.3.1/../../../../arm-none-eabi/lib\libc.a(lib_a-__call_atexit.o)
 .bss           0x00000000        0x0 c:/users/lisha/.eide/tools/gcc_arm/bin/../lib/gcc/arm-none-eabi/8.3.1/../../../../arm-none-eabi/lib\libc.a(lib_a-__call_atexit.o)
 .text.__call_exitprocs
                0x00000000      0x128 c:/users/lisha/.eide/tools/gcc_arm/bin/../lib/gcc/arm-none-eabi/8.3.1/../../../../arm-none-eabi/lib\libc.a(lib_a-__call_atexit.o)
 .text          0x00000000        0x0 c:/users/lisha/.eide/tools/gcc_arm/bin/../lib/gcc/arm-none-eabi/8.3.1/../../../../arm-none-eabi/lib\libc.a(lib_a-atexit.o)
 .data          0x00000000        0x0 c:/users/lisha/.eide/tools/gcc_arm/bin/../lib/gcc/arm-none-eabi/8.3.1/../../../../arm-none-eabi/lib\libc.a(lib_a-atexit.o)
 .bss           0x00000000        0x0 c:/users/lisha/.eide/tools/gcc_arm/bin/../lib/gcc/arm-none-eabi/8.3.1/../../../../arm-none-eabi/lib\libc.a(lib_a-atexit.o)
 .text          0x00000000        0x0 c:/users/lisha/.eide/tools/gcc_arm/bin/../lib/gcc/arm-none-eabi/8.3.1/../../../../arm-none-eabi/lib\libc.a(lib_a-fini.o)
 .data          0x00000000        0x0 c:/users/lisha/.eide/tools/gcc_arm/bin/../lib/gcc/arm-none-eabi/8.3.1/../../../../arm-none-eabi/lib\libc.a(lib_a-fini.o)
 .bss           0x00000000        0x0 c:/users/lisha/.eide/tools/gcc_arm/bin/../lib/gcc/arm-none-eabi/8.3.1/../../../../arm-none-eabi/lib\libc.a(lib_a-fini.o)
 .text          0x00000000        0x0 c:/users/lisha/.eide/tools/gcc_arm/bin/../lib/gcc/arm-none-eabi/8.3.1/../../../../arm-none-eabi/lib\libc.a(lib_a-lock.o)
 .data          0x00000000        0x0 c:/users/lisha/.eide/tools/gcc_arm/bin/../lib/gcc/arm-none-eabi/8.3.1/../../../../arm-none-eabi/lib\libc.a(lib_a-lock.o)
 .bss           0x00000000        0x0 c:/users/lisha/.eide/tools/gcc_arm/bin/../lib/gcc/arm-none-eabi/8.3.1/../../../../arm-none-eabi/lib\libc.a(lib_a-lock.o)
 .text.__retarget_lock_init
                0x00000000        0x4 c:/users/lisha/.eide/tools/gcc_arm/bin/../lib/gcc/arm-none-eabi/8.3.1/../../../../arm-none-eabi/lib\libc.a(lib_a-lock.o)
 .text.__retarget_lock_init_recursive
                0x00000000        0x4 c:/users/lisha/.eide/tools/gcc_arm/bin/../lib/gcc/arm-none-eabi/8.3.1/../../../../arm-none-eabi/lib\libc.a(lib_a-lock.o)
 .text.__retarget_lock_close
                0x00000000        0x4 c:/users/lisha/.eide/tools/gcc_arm/bin/../lib/gcc/arm-none-eabi/8.3.1/../../../../arm-none-eabi/lib\libc.a(lib_a-lock.o)
 .text.__retarget_lock_close_recursive
                0x00000000        0x4 c:/users/lisha/.eide/tools/gcc_arm/bin/../lib/gcc/arm-none-eabi/8.3.1/../../../../arm-none-eabi/lib\libc.a(lib_a-lock.o)
 .text.__retarget_lock_acquire
                0x00000000        0x4 c:/users/lisha/.eide/tools/gcc_arm/bin/../lib/gcc/arm-none-eabi/8.3.1/../../../../arm-none-eabi/lib\libc.a(lib_a-lock.o)
 .text.__retarget_lock_try_acquire
                0x00000000        0x8 c:/users/lisha/.eide/tools/gcc_arm/bin/../lib/gcc/arm-none-eabi/8.3.1/../../../../arm-none-eabi/lib\libc.a(lib_a-lock.o)
 .text.__retarget_lock_try_acquire_recursive
                0x00000000        0x8 c:/users/lisha/.eide/tools/gcc_arm/bin/../lib/gcc/arm-none-eabi/8.3.1/../../../../arm-none-eabi/lib\libc.a(lib_a-lock.o)
 .text.__retarget_lock_release
                0x00000000        0x4 c:/users/lisha/.eide/tools/gcc_arm/bin/../lib/gcc/arm-none-eabi/8.3.1/../../../../arm-none-eabi/lib\libc.a(lib_a-lock.o)
 .text          0x00000000        0x0 c:/users/lisha/.eide/tools/gcc_arm/bin/../lib/gcc/arm-none-eabi/8.3.1/../../../../arm-none-eabi/lib\libc.a(lib_a-__atexit.o)
 .data          0x00000000        0x0 c:/users/lisha/.eide/tools/gcc_arm/bin/../lib/gcc/arm-none-eabi/8.3.1/../../../../arm-none-eabi/lib\libc.a(lib_a-__atexit.o)
 .bss           0x00000000        0x0 c:/users/lisha/.eide/tools/gcc_arm/bin/../lib/gcc/arm-none-eabi/8.3.1/../../../../arm-none-eabi/lib\libc.a(lib_a-__atexit.o)
 .text          0x00000000        0x0 c:/users/lisha/.eide/tools/gcc_arm/bin/../lib/gcc/arm-none-eabi/8.3.1/../../../../arm-none-eabi/lib\libnosys.a(_exit.o)
 .data          0x00000000        0x0 c:/users/lisha/.eide/tools/gcc_arm/bin/../lib/gcc/arm-none-eabi/8.3.1/../../../../arm-none-eabi/lib\libnosys.a(_exit.o)
 .bss           0x00000000        0x0 c:/users/lisha/.eide/tools/gcc_arm/bin/../lib/gcc/arm-none-eabi/8.3.1/../../../../arm-none-eabi/lib\libnosys.a(_exit.o)
 .text._exit    0x00000000        0x4 c:/users/lisha/.eide/tools/gcc_arm/bin/../lib/gcc/arm-none-eabi/8.3.1/../../../../arm-none-eabi/lib\libnosys.a(_exit.o)
 .debug_frame   0x00000000       0x20 c:/users/lisha/.eide/tools/gcc_arm/bin/../lib/gcc/arm-none-eabi/8.3.1/../../../../arm-none-eabi/lib\libnosys.a(_exit.o)
 .ARM.attributes
                0x00000000       0x2a c:/users/lisha/.eide/tools/gcc_arm/bin/../lib/gcc/arm-none-eabi/8.3.1/../../../../arm-none-eabi/lib\libnosys.a(_exit.o)
 .data          0x00000000        0x0 out/main.o
 .bss           0x00000000        0x0 out/main.o
 .bss           0x00000000        0x0 out/./arch/arm/stm32f103c8t6/system_stm32f10x.o
 .data          0x00000000        0x0 out/./arch/arm/stm32f103c8t6/stm32f10x_it.o
 .bss           0x00000000        0x0 out/./arch/arm/stm32f103c8t6/stm32f10x_it.o
 .data          0x00000000        0x0 out/./arch/arm/stm32f103c8t6/USART.o
 .bss           0x00000000       0x29 out/./arch/arm/stm32f103c8t6/USART.o
 .text          0x00000000       0x14 out/./arch/arm/stm32f103c8t6/startup_stm32f10x_md.o
 .data          0x00000000        0x0 out/./arch/arm/stm32f103c8t6/startup_stm32f10x_md.o
 .bss           0x00000000        0x0 out/./arch/arm/stm32f103c8t6/startup_stm32f10x_md.o
 .data          0x00000000        0x0 c:/users/lisha/.eide/tools/gcc_arm/bin/../lib/gcc/arm-none-eabi/8.3.1\libgcc.a(_arm_addsubsf3.o)
 .bss           0x00000000        0x0 c:/users/lisha/.eide/tools/gcc_arm/bin/../lib/gcc/arm-none-eabi/8.3.1\libgcc.a(_arm_addsubsf3.o)
 .data          0x00000000        0x0 c:/users/lisha/.eide/tools/gcc_arm/bin/../lib/gcc/arm-none-eabi/8.3.1\libgcc.a(_arm_fixunssfsi.o)
 .bss           0x00000000        0x0 c:/users/lisha/.eide/tools/gcc_arm/bin/../lib/gcc/arm-none-eabi/8.3.1\libgcc.a(_arm_fixunssfsi.o)
 .text          0x00000000        0x0 c:/users/lisha/.eide/tools/gcc_arm/bin/../lib/gcc/arm-none-eabi/8.3.1/crtend.o
 .data          0x00000000        0x0 c:/users/lisha/.eide/tools/gcc_arm/bin/../lib/gcc/arm-none-eabi/8.3.1/crtend.o
 .bss           0x00000000        0x0 c:/users/lisha/.eide/tools/gcc_arm/bin/../lib/gcc/arm-none-eabi/8.3.1/crtend.o
 .eh_frame      0x00000000        0x4 c:/users/lisha/.eide/tools/gcc_arm/bin/../lib/gcc/arm-none-eabi/8.3.1/crtend.o
 .ARM.attributes
                0x00000000       0x30 c:/users/lisha/.eide/tools/gcc_arm/bin/../lib/gcc/arm-none-eabi/8.3.1/crtend.o
 .text          0x00000000        0x0 c:/users/lisha/.eide/tools/gcc_arm/bin/../lib/gcc/arm-none-eabi/8.3.1/crtn.o
 .data          0x00000000        0x0 c:/users/lisha/.eide/tools/gcc_arm/bin/../lib/gcc/arm-none-eabi/8.3.1/crtn.o
 .bss           0x00000000        0x0 c:/users/lisha/.eide/tools/gcc_arm/bin/../lib/gcc/arm-none-eabi/8.3.1/crtn.o

Memory Configuration

Name             Origin             Length             Attributes
FLASH            0x08000000         0x00010000         xr
RAM              0x20000000         0x00005000         xrw
MEMORY_B1        0x60000000         0x00000000         xr
*default*        0x00000000         0xffffffff

Linker script and memory map

LOAD c:/users/lisha/.eide/tools/gcc_arm/bin/../lib/gcc/arm-none-eabi/8.3.1/crti.o
LOAD c:/users/lisha/.eide/tools/gcc_arm/bin/../lib/gcc/arm-none-eabi/8.3.1/crtbegin.o
LOAD c:/users/lisha/.eide/tools/gcc_arm/bin/../lib/gcc/arm-none-eabi/8.3.1/../../../../arm-none-eabi/lib/crt0.o
LOAD c:/users/lisha/.eide/tools/gcc_arm/bin/../lib/gcc/arm-none-eabi/8.3.1/../../../../arm-none-eabi/lib\libc.a
LOAD c:/users/lisha/.eide/tools/gcc_arm/bin/../lib/gcc/arm-none-eabi/8.3.1/../../../../arm-none-eabi/lib\libm.a
LOAD c:/users/lisha/.eide/tools/gcc_arm/bin/../lib/gcc/arm-none-eabi/8.3.1/../../../../arm-none-eabi/lib\libnosys.a
LOAD out/main.o
LOAD out/./arch/arm/stm32f103c8t6/system_stm32f10x.o
LOAD out/./arch/arm/stm32f103c8t6/stm32f10x_it.o
LOAD out/./arch/arm/stm32f103c8t6/USART.o
LOAD out/./arch/arm/stm32f103c8t6/startup_stm32f10x_md.o
LOAD c:/users/lisha/.eide/tools/gcc_arm/bin/../lib/gcc/arm-none-eabi/8.3.1/../../../../arm-none-eabi/lib\libc.a
LOAD c:/users/lisha/.eide/tools/gcc_arm/bin/../lib/gcc/arm-none-eabi/8.3.1/../../../../arm-none-eabi/lib\libm.a
LOAD c:/users/lisha/.eide/tools/gcc_arm/bin/../lib/gcc/arm-none-eabi/8.3.1/../../../../arm-none-eabi/lib\libnosys.a
START GROUP
LOAD c:/users/lisha/.eide/tools/gcc_arm/bin/../lib/gcc/arm-none-eabi/8.3.1\libgcc.a
LOAD c:/users/lisha/.eide/tools/gcc_arm/bin/../lib/gcc/arm-none-eabi/8.3.1/../../../../arm-none-eabi/lib\libc.a
END GROUP
LOAD c:/users/lisha/.eide/tools/gcc_arm/bin/../lib/gcc/arm-none-eabi/8.3.1/crtend.o
LOAD c:/users/lisha/.eide/tools/gcc_arm/bin/../lib/gcc/arm-none-eabi/8.3.1/crtn.o
                0x20005000                _estack = 0x20005000
                0x00000000                _Min_Heap_Size = 0x0
                0x00000100                _Min_Stack_Size = 0x100

.isr_vector     0x08000000      0x10c
                0x08000000                . = ALIGN (0x4)
 *(.isr_vector)
 .isr_vector    0x08000000      0x10c out/./arch/arm/stm32f103c8t6/startup_stm32f10x_md.o
                0x08000000                g_pfnVectors
                0x0800010c                . = ALIGN (0x4)

.eh_frame       0x0800010c        0x0
 .eh_frame      0x0800010c        0x0 c:/users/lisha/.eide/tools/gcc_arm/bin/../lib/gcc/arm-none-eabi/8.3.1/crtbegin.o

.text           0x0800010c      0xc38
                0x0800010c                . = ALIGN (0x4)
 *(.text)
 .text          0x0800010c       0x70 c:/users/lisha/.eide/tools/gcc_arm/bin/../lib/gcc/arm-none-eabi/8.3.1/crtbegin.o
 .text          0x0800017c       0xb0 out/main.o
                0x080001b6                main
 .text          0x0800022c      0x2a0 out/./arch/arm/stm32f103c8t6/system_stm32f10x.o
                0x0800022c                SystemInit
                0x080002a4                SystemCoreClockUpdate
 .text          0x080004cc       0x42 out/./arch/arm/stm32f103c8t6/stm32f10x_it.o
                0x080004cc                NMI_Handler
                0x080004da                HardFault_Handler
                0x080004e0                MemManage_Handler
                0x080004e6                BusFault_Handler
                0x080004ec                UsageFault_Handler
                0x080004f2                SVC_Handler
                0x08000500                DebugMon_Handler
 *fill*         0x0800050e        0x2 
 .text          0x08000510      0x2d0 out/./arch/arm/stm32f103c8t6/USART.o
                0x08000672                USART1_Init
                0x08000794                USART1_PrintString
 .text          0x080007e0      0x2ac c:/users/lisha/.eide/tools/gcc_arm/bin/../lib/gcc/arm-none-eabi/8.3.1\libgcc.a(_arm_addsubsf3.o)
                0x080007e0                __aeabi_frsub
                0x080007e8                __subsf3
                0x080007e8                __aeabi_fsub
                0x080007ec                __aeabi_fadd
                0x080007ec                __addsf3
                0x080009a8                __aeabi_ui2f
                0x080009a8                __floatunsisf
                0x080009b0                __aeabi_i2f
                0x080009b0                __floatsisf
                0x080009d0                __aeabi_ul2f
                0x080009d0                __floatundisf
                0x080009e0                __aeabi_l2f
                0x080009e0                __floatdisf
 .text          0x08000a8c       0x54 c:/users/lisha/.eide/tools/gcc_arm/bin/../lib/gcc/arm-none-eabi/8.3.1\libgcc.a(_arm_fixunssfsi.o)
                0x08000a8c                __fixunssfsi
                0x08000a8c                __aeabi_f2uiz
 *(.text*)
 .text.__libc_init_array
                0x08000ae0       0x88 c:/users/lisha/.eide/tools/gcc_arm/bin/../lib/gcc/arm-none-eabi/8.3.1/../../../../arm-none-eabi/lib\libc.a(lib_a-init.o)
                0x08000ae0                __libc_init_array
 .text.startup.register_fini
                0x08000b68       0x28 c:/users/lisha/.eide/tools/gcc_arm/bin/../lib/gcc/arm-none-eabi/8.3.1/../../../../arm-none-eabi/lib\libc.a(lib_a-__call_atexit.o)
 .text.atexit   0x08000b90       0x20 c:/users/lisha/.eide/tools/gcc_arm/bin/../lib/gcc/arm-none-eabi/8.3.1/../../../../arm-none-eabi/lib\libc.a(lib_a-atexit.o)
                0x08000b90                atexit
 .text.__libc_fini_array
                0x08000bb0       0x48 c:/users/lisha/.eide/tools/gcc_arm/bin/../lib/gcc/arm-none-eabi/8.3.1/../../../../arm-none-eabi/lib\libc.a(lib_a-fini.o)
                0x08000bb0                __libc_fini_array
 .text.__retarget_lock_acquire_recursive
                0x08000bf8        0x4 c:/users/lisha/.eide/tools/gcc_arm/bin/../lib/gcc/arm-none-eabi/8.3.1/../../../../arm-none-eabi/lib\libc.a(lib_a-lock.o)
                0x08000bf8                __retarget_lock_acquire_recursive
 .text.__retarget_lock_release_recursive
                0x08000bfc        0x4 c:/users/lisha/.eide/tools/gcc_arm/bin/../lib/gcc/arm-none-eabi/8.3.1/../../../../arm-none-eabi/lib\libc.a(lib_a-lock.o)
                0x08000bfc                __retarget_lock_release_recursive
 .text.__register_exitproc
                0x08000c00       0xb8 c:/users/lisha/.eide/tools/gcc_arm/bin/../lib/gcc/arm-none-eabi/8.3.1/../../../../arm-none-eabi/lib\libc.a(lib_a-__atexit.o)
                0x08000c00                __register_exitproc
 .text.Reset_Handler
                0x08000cb8       0x48 out/./arch/arm/stm32f103c8t6/startup_stm32f10x_md.o
                0x08000cb8                Reset_Handler
 .text.Default_Handler
                0x08000d00        0x2 out/./arch/arm/stm32f103c8t6/startup_stm32f10x_md.o
                0x08000d00                EXTI2_IRQHandler
                0x08000d00                TIM1_CC_IRQHandler
                0x08000d00                SysTick_Handler
                0x08000d00                PVD_IRQHandler
                0x08000d00                PendSV_Handler
                0x08000d00                EXTI3_IRQHandler
                0x08000d00                EXTI0_IRQHandler
                0x08000d00                I2C2_EV_IRQHandler
                0x08000d00                ADC1_2_IRQHandler
                0x08000d00                SPI1_IRQHandler
                0x08000d00                TAMPER_IRQHandler
                0x08000d00                DMA1_Channel4_IRQHandler
                0x08000d00                USART3_IRQHandler
                0x08000d00                RTC_IRQHandler
                0x08000d00                DMA1_Channel7_IRQHandler
                0x08000d00                CAN1_RX1_IRQHandler
                0x08000d00                TIM4_IRQHandler
                0x08000d00                I2C1_EV_IRQHandler
                0x08000d00                DMA1_Channel6_IRQHandler
                0x08000d00                TIM3_IRQHandler
                0x08000d00                RCC_IRQHandler
                0x08000d00                TIM1_TRG_COM_IRQHandler
                0x08000d00                DMA1_Channel1_IRQHandler
                0x08000d00                Default_Handler
                0x08000d00                EXTI15_10_IRQHandler
                0x08000d00                EXTI9_5_IRQHandler
                0x08000d00                SPI2_IRQHandler
                0x08000d00                DMA1_Channel5_IRQHandler
                0x08000d00                EXTI4_IRQHandler
                0x08000d00                USB_LP_CAN1_RX0_IRQHandler
                0x08000d00                USB_HP_CAN1_TX_IRQHandler
                0x08000d00                DMA1_Channel3_IRQHandler
                0x08000d00                TIM1_UP_IRQHandler
                0x08000d00                WWDG_IRQHandler
                0x08000d00                TIM2_IRQHandler
                0x08000d00                TIM1_BRK_IRQHandler
                0x08000d00                EXTI1_IRQHandler
                0x08000d00                RTCAlarm_IRQHandler
                0x08000d00                USART2_IRQHandler
                0x08000d00                I2C2_ER_IRQHandler
                0x08000d00                DMA1_Channel2_IRQHandler
                0x08000d00                CAN1_SCE_IRQHandler
                0x08000d00                FLASH_IRQHandler
                0x08000d00                USART1_IRQHandler
                0x08000d00                I2C1_ER_IRQHandler
                0x08000d00                USBWakeUp_IRQHandler
 *(.rodata)
 *fill*         0x08000d02        0x2 
 .rodata        0x08000d04        0xc out/main.o
 *(.rodata*)
 .rodata._global_impure_ptr
                0x08000d10        0x4 c:/users/lisha/.eide/tools/gcc_arm/bin/../lib/gcc/arm-none-eabi/8.3.1/../../../../arm-none-eabi/lib\libc.a(lib_a-impure.o)
                0x08000d10                _global_impure_ptr
 *(.glue_7)
 .glue_7        0x08000d14        0x0 linker stubs
 *(.glue_7t)
 .glue_7t       0x08000d14        0x0 linker stubs
 *(.init)
 .init          0x08000d14        0xc c:/users/lisha/.eide/tools/gcc_arm/bin/../lib/gcc/arm-none-eabi/8.3.1/crti.o
                0x08000d14                _init
 .init          0x08000d20        0xc c:/users/lisha/.eide/tools/gcc_arm/bin/../lib/gcc/arm-none-eabi/8.3.1/crtn.o
 *(.fini)
 .fini          0x08000d2c        0xc c:/users/lisha/.eide/tools/gcc_arm/bin/../lib/gcc/arm-none-eabi/8.3.1/crti.o
                0x08000d2c                _fini
 .fini          0x08000d38        0xc c:/users/lisha/.eide/tools/gcc_arm/bin/../lib/gcc/arm-none-eabi/8.3.1/crtn.o
                0x08000d44                . = ALIGN (0x4)
                0x08000d44                _etext = .

.vfp11_veneer   0x08000d44        0x0
 .vfp11_veneer  0x08000d44        0x0 linker stubs

.v4_bx          0x08000d44        0x0
 .v4_bx         0x08000d44        0x0 linker stubs

.iplt           0x08000d44        0x0
 .iplt          0x08000d44        0x0 c:/users/lisha/.eide/tools/gcc_arm/bin/../lib/gcc/arm-none-eabi/8.3.1/crtbegin.o

.rel.dyn        0x08000d44        0x0
 .rel.iplt      0x08000d44        0x0 c:/users/lisha/.eide/tools/gcc_arm/bin/../lib/gcc/arm-none-eabi/8.3.1/crtbegin.o

.ARM.extab
 *(.ARM.extab* .gnu.linkonce.armextab.*)

.ARM            0x08000d44        0x0
                0x08000d44                __exidx_start = .
 *(.ARM.exidx*)
                0x08000d44                __exidx_end = .

.ARM.attributes
                0x08000d44       0x2f
 *(.ARM.attributes)
 .ARM.attributes
                0x08000d44       0x1c c:/users/lisha/.eide/tools/gcc_arm/bin/../lib/gcc/arm-none-eabi/8.3.1/crti.o
 .ARM.attributes
                0x08000d60       0x2a c:/users/lisha/.eide/tools/gcc_arm/bin/../lib/gcc/arm-none-eabi/8.3.1/crtbegin.o
 .ARM.attributes
                0x08000d8a       0x30 c:/users/lisha/.eide/tools/gcc_arm/bin/../lib/gcc/arm-none-eabi/8.3.1/../../../../arm-none-eabi/lib\libc.a(lib_a-impure.o)
 .ARM.attributes
                0x08000dba       0x2a c:/users/lisha/.eide/tools/gcc_arm/bin/../lib/gcc/arm-none-eabi/8.3.1/../../../../arm-none-eabi/lib\libc.a(lib_a-init.o)
 .ARM.attributes
                0x08000de4       0x2a c:/users/lisha/.eide/tools/gcc_arm/bin/../lib/gcc/arm-none-eabi/8.3.1/../../../../arm-none-eabi/lib\libc.a(lib_a-__call_atexit.o)
 .ARM.attributes
                0x08000e0e       0x2a c:/users/lisha/.eide/tools/gcc_arm/bin/../lib/gcc/arm-none-eabi/8.3.1/../../../../arm-none-eabi/lib\libc.a(lib_a-atexit.o)
 .ARM.attributes
                0x08000e38       0x2a c:/users/lisha/.eide/tools/gcc_arm/bin/../lib/gcc/arm-none-eabi/8.3.1/../../../../arm-none-eabi/lib\libc.a(lib_a-fini.o)
 .ARM.attributes
                0x08000e62       0x2a c:/users/lisha/.eide/tools/gcc_arm/bin/../lib/gcc/arm-none-eabi/8.3.1/../../../../arm-none-eabi/lib\libc.a(lib_a-lock.o)
 .ARM.attributes
                0x08000e8c       0x2a c:/users/lisha/.eide/tools/gcc_arm/bin/../lib/gcc/arm-none-eabi/8.3.1/../../../../arm-none-eabi/lib\libc.a(lib_a-__atexit.o)
 .ARM.attributes
                0x08000eb6       0x2a out/main.o
 .ARM.attributes
                0x08000ee0       0x2a out/./arch/arm/stm32f103c8t6/system_stm32f10x.o
 .ARM.attributes
                0x08000f0a       0x2a out/./arch/arm/stm32f103c8t6/stm32f10x_it.o
 .ARM.attributes
                0x08000f34       0x2a out/./arch/arm/stm32f103c8t6/USART.o
 .ARM.attributes
                0x08000f5e       0x21 out/./arch/arm/stm32f103c8t6/startup_stm32f10x_md.o
 .ARM.attributes
                0x08000f7f       0x1c c:/users/lisha/.eide/tools/gcc_arm/bin/../lib/gcc/arm-none-eabi/8.3.1\libgcc.a(_arm_addsubsf3.o)
 .ARM.attributes
                0x08000f9b       0x1c c:/users/lisha/.eide/tools/gcc_arm/bin/../lib/gcc/arm-none-eabi/8.3.1\libgcc.a(_arm_fixunssfsi.o)
 .ARM.attributes
                0x08000fb7       0x1c c:/users/lisha/.eide/tools/gcc_arm/bin/../lib/gcc/arm-none-eabi/8.3.1/crtn.o

.preinit_array  0x08000d44        0x0
                0x08000d44                PROVIDE (__preinit_array_start = .)
 *(.preinit_array*)
                0x08000d44                PROVIDE (__preinit_array_end = .)

.init_array     0x08000d44        0x8
                0x08000d44                PROVIDE (__init_array_start = .)
 *(SORT_BY_NAME(.init_array.*))
 .init_array.00000
                0x08000d44        0x4 c:/users/lisha/.eide/tools/gcc_arm/bin/../lib/gcc/arm-none-eabi/8.3.1/../../../../arm-none-eabi/lib\libc.a(lib_a-__call_atexit.o)
 *(.init_array*)
 .init_array    0x08000d48        0x4 c:/users/lisha/.eide/tools/gcc_arm/bin/../lib/gcc/arm-none-eabi/8.3.1/crtbegin.o
                0x08000d4c                PROVIDE (__init_array_end = .)

.fini_array     0x08000d4c        0x4
                0x08000d4c                PROVIDE (__fini_array_start = .)
 *(.fini_array*)
 .fini_array    0x08000d4c        0x4 c:/users/lisha/.eide/tools/gcc_arm/bin/../lib/gcc/arm-none-eabi/8.3.1/crtbegin.o
 *(SORT_BY_NAME(.fini_array.*))
                0x08000d50                PROVIDE (__fini_array_end = .)
                0x08000d50                _sidata = .

.data           0x20000000      0x444 load address 0x08000d50
                0x20000000                . = ALIGN (0x4)
                0x20000000                _sdata = .
 *(.data)
 .data          0x20000000       0x14 out/./arch/arm/stm32f103c8t6/system_stm32f10x.o
                0x20000000                SystemCoreClock
                0x20000004                AHBPrescTable
 *(.data*)
 *fill*         0x20000014        0x4 
 .data.impure_data
                0x20000018      0x428 c:/users/lisha/.eide/tools/gcc_arm/bin/../lib/gcc/arm-none-eabi/8.3.1/../../../../arm-none-eabi/lib\libc.a(lib_a-impure.o)
 .data.__atexit_recursive_mutex
                0x20000440        0x4 c:/users/lisha/.eide/tools/gcc_arm/bin/../lib/gcc/arm-none-eabi/8.3.1/../../../../arm-none-eabi/lib\libc.a(lib_a-__call_atexit.o)
                0x20000440                __atexit_recursive_mutex
                0x20000444                . = ALIGN (0x4)
                0x20000444                _edata = .

.igot.plt       0x20000444        0x0 load address 0x08001194
 .igot.plt      0x20000444        0x0 c:/users/lisha/.eide/tools/gcc_arm/bin/../lib/gcc/arm-none-eabi/8.3.1/crtbegin.o
                0x20000444                . = ALIGN (0x4)

.bss            0x20000444       0x40 load address 0x08001194
                0x20000444                _sbss = .
                0x20000444                __bss_start__ = _sbss
 *(.bss)
 .bss           0x20000444       0x1c c:/users/lisha/.eide/tools/gcc_arm/bin/../lib/gcc/arm-none-eabi/8.3.1/crtbegin.o
 *(.bss*)
 *(COMMON)
 COMMON         0x20000460       0x21 c:/users/lisha/.eide/tools/gcc_arm/bin/../lib/gcc/arm-none-eabi/8.3.1/../../../../arm-none-eabi/lib\libc.a(lib_a-lock.o)
                0x20000460                __lock___atexit_recursive_mutex
                0x20000464                __lock___arc4random_mutex
                0x20000468                __lock___env_recursive_mutex
                0x2000046c                __lock___sinit_recursive_mutex
                0x20000470                __lock___malloc_recursive_mutex
                0x20000474                __lock___at_quick_exit_mutex
                0x20000478                __lock___dd_hash_mutex
                0x2000047c                __lock___tz_mutex
                0x20000480                __lock___sfp_recursive_mutex
                0x20000484                . = ALIGN (0x4)
 *fill*         0x20000481        0x3 
                0x20000484                _ebss = .
                0x20000484                __bss_end__ = _ebss
                [!provide]                PROVIDE (end = _ebss)
                [!provide]                PROVIDE (_end = _ebss)

._user_heap_stack
                0x20000484      0x100 load address 0x080011d4
                0x20000484                . = ALIGN (0x4)
                0x20000484                . = (. + _Min_Heap_Size)
                0x20000584                . = (. + _Min_Stack_Size)
 *fill*         0x20000484      0x100 
                0x20000584                . = ALIGN (0x4)

.memory_b1_text
 *(.mb1text)
 *(.mb1text*)
 *(.mb1rodata)
 *(.mb1rodata*)

/DISCARD/
 libc.a(*)
 libm.a(*)
 libgcc.a(*)
OUTPUT(out/main.elf elf32-littlearm)

.debug_frame    0x00000000      0x4d0
 .debug_frame   0x00000000       0x34 c:/users/lisha/.eide/tools/gcc_arm/bin/../lib/gcc/arm-none-eabi/8.3.1/../../../../arm-none-eabi/lib\libc.a(lib_a-init.o)
 .debug_frame   0x00000034       0x68 c:/users/lisha/.eide/tools/gcc_arm/bin/../lib/gcc/arm-none-eabi/8.3.1/../../../../arm-none-eabi/lib\libc.a(lib_a-__call_atexit.o)
 .debug_frame   0x0000009c       0x2c c:/users/lisha/.eide/tools/gcc_arm/bin/../lib/gcc/arm-none-eabi/8.3.1/../../../../arm-none-eabi/lib\libc.a(lib_a-atexit.o)
 .debug_frame   0x000000c8       0x34 c:/users/lisha/.eide/tools/gcc_arm/bin/../lib/gcc/arm-none-eabi/8.3.1/../../../../arm-none-eabi/lib\libc.a(lib_a-fini.o)
 .debug_frame   0x000000fc       0xb0 c:/users/lisha/.eide/tools/gcc_arm/bin/../lib/gcc/arm-none-eabi/8.3.1/../../../../arm-none-eabi/lib\libc.a(lib_a-lock.o)
 .debug_frame   0x000001ac       0x3c c:/users/lisha/.eide/tools/gcc_arm/bin/../lib/gcc/arm-none-eabi/8.3.1/../../../../arm-none-eabi/lib\libc.a(lib_a-__atexit.o)
 .debug_frame   0x000001e8       0x4c out/main.o
 .debug_frame   0x00000234       0x88 out/./arch/arm/stm32f103c8t6/system_stm32f10x.o
 .debug_frame   0x000002bc       0xd4 out/./arch/arm/stm32f103c8t6/stm32f10x_it.o
 .debug_frame   0x00000390       0xd0 out/./arch/arm/stm32f103c8t6/USART.o
 .debug_frame   0x00000460       0x4c c:/users/lisha/.eide/tools/gcc_arm/bin/../lib/gcc/arm-none-eabi/8.3.1\libgcc.a(_arm_addsubsf3.o)
 .debug_frame   0x000004ac       0x24 c:/users/lisha/.eide/tools/gcc_arm/bin/../lib/gcc/arm-none-eabi/8.3.1\libgcc.a(_arm_fixunssfsi.o)

.debug_info     0x00000000     0x1179
 .debug_info    0x00000000      0x231 out/main.o
 .debug_info    0x00000231      0x4e5 out/./arch/arm/stm32f103c8t6/system_stm32f10x.o
 .debug_info    0x00000716      0x138 out/./arch/arm/stm32f103c8t6/stm32f10x_it.o
 .debug_info    0x0000084e      0x909 out/./arch/arm/stm32f103c8t6/USART.o
 .debug_info    0x00001157       0x22 out/./arch/arm/stm32f103c8t6/startup_stm32f10x_md.o

.debug_abbrev   0x00000000      0x533
 .debug_abbrev  0x00000000       0xfa out/main.o
 .debug_abbrev  0x000000fa      0x190 out/./arch/arm/stm32f103c8t6/system_stm32f10x.o
 .debug_abbrev  0x0000028a       0x80 out/./arch/arm/stm32f103c8t6/stm32f10x_it.o
 .debug_abbrev  0x0000030a      0x217 out/./arch/arm/stm32f103c8t6/USART.o
 .debug_abbrev  0x00000521       0x12 out/./arch/arm/stm32f103c8t6/startup_stm32f10x_md.o

.debug_aranges  0x00000000       0xa8
 .debug_aranges
                0x00000000       0x20 out/main.o
 .debug_aranges
                0x00000020       0x20 out/./arch/arm/stm32f103c8t6/system_stm32f10x.o
 .debug_aranges
                0x00000040       0x20 out/./arch/arm/stm32f103c8t6/stm32f10x_it.o
 .debug_aranges
                0x00000060       0x20 out/./arch/arm/stm32f103c8t6/USART.o
 .debug_aranges
                0x00000080       0x28 out/./arch/arm/stm32f103c8t6/startup_stm32f10x_md.o

.debug_line     0x00000000      0x8ac
 .debug_line    0x00000000      0x1b7 out/main.o
 .debug_line    0x000001b7      0x298 out/./arch/arm/stm32f103c8t6/system_stm32f10x.o
 .debug_line    0x0000044f      0x16e out/./arch/arm/stm32f103c8t6/stm32f10x_it.o
 .debug_line    0x000005bd      0x265 out/./arch/arm/stm32f103c8t6/USART.o
 .debug_line    0x00000822       0x8a out/./arch/arm/stm32f103c8t6/startup_stm32f10x_md.o

.debug_str      0x00000000      0x816
 .debug_str     0x00000000      0x183 out/main.o
                                0x1c8 (size before relaxing)
 .debug_str     0x00000183      0x13d out/./arch/arm/stm32f103c8t6/system_stm32f10x.o
                                0x2f2 (size before relaxing)
 .debug_str     0x000002c0       0x97 out/./arch/arm/stm32f103c8t6/stm32f10x_it.o
                                0x1f7 (size before relaxing)
 .debug_str     0x00000357      0x483 out/./arch/arm/stm32f103c8t6/USART.o
                                0x6ce (size before relaxing)
 .debug_str     0x000007da       0x3c out/./arch/arm/stm32f103c8t6/startup_stm32f10x_md.o
                                 0x5c (size before relaxing)

.comment        0x00000000       0x76
 .comment       0x00000000       0x76 out/main.o
                                 0x77 (size before relaxing)
 .comment       0x00000076       0x77 out/./arch/arm/stm32f103c8t6/system_stm32f10x.o
 .comment       0x00000076       0x77 out/./arch/arm/stm32f103c8t6/stm32f10x_it.o
 .comment       0x00000076       0x77 out/./arch/arm/stm32f103c8t6/USART.o

.debug_ranges   0x00000000       0x20
 .debug_ranges  0x00000000       0x20 out/./arch/arm/stm32f103c8t6/startup_stm32f10x_md.o

Cross Reference Table

Symbol                                            File
ADC1_2_IRQHandler                                 out/./arch/arm/stm32f103c8t6/startup_stm32f10x_md.o
AHBPrescTable                                     out/./arch/arm/stm32f103c8t6/system_stm32f10x.o
BusFault_Handler                                  out/./arch/arm/stm32f103c8t6/stm32f10x_it.o
CAN1_RX1_IRQHandler                               out/./arch/arm/stm32f103c8t6/startup_stm32f10x_md.o
CAN1_SCE_IRQHandler                               out/./arch/arm/stm32f103c8t6/startup_stm32f10x_md.o
DMA1_Channel1_IRQHandler                          out/./arch/arm/stm32f103c8t6/startup_stm32f10x_md.o
DMA1_Channel2_IRQHandler                          out/./arch/arm/stm32f103c8t6/startup_stm32f10x_md.o
DMA1_Channel3_IRQHandler                          out/./arch/arm/stm32f103c8t6/startup_stm32f10x_md.o
DMA1_Channel4_IRQHandler                          out/./arch/arm/stm32f103c8t6/startup_stm32f10x_md.o
DMA1_Channel5_IRQHandler                          out/./arch/arm/stm32f103c8t6/startup_stm32f10x_md.o
DMA1_Channel6_IRQHandler                          out/./arch/arm/stm32f103c8t6/startup_stm32f10x_md.o
DMA1_Channel7_IRQHandler                          out/./arch/arm/stm32f103c8t6/startup_stm32f10x_md.o
DebugMon_Handler                                  out/./arch/arm/stm32f103c8t6/stm32f10x_it.o
Default_Handler                                   out/./arch/arm/stm32f103c8t6/startup_stm32f10x_md.o
EXTI0_IRQHandler                                  out/./arch/arm/stm32f103c8t6/startup_stm32f10x_md.o
EXTI15_10_IRQHandler                              out/./arch/arm/stm32f103c8t6/startup_stm32f10x_md.o
EXTI1_IRQHandler                                  out/./arch/arm/stm32f103c8t6/startup_stm32f10x_md.o
EXTI2_IRQHandler                                  out/./arch/arm/stm32f103c8t6/startup_stm32f10x_md.o
EXTI3_IRQHandler                                  out/./arch/arm/stm32f103c8t6/startup_stm32f10x_md.o
EXTI4_IRQHandler                                  out/./arch/arm/stm32f103c8t6/startup_stm32f10x_md.o
EXTI9_5_IRQHandler                                out/./arch/arm/stm32f103c8t6/startup_stm32f10x_md.o
FLASH_IRQHandler                                  out/./arch/arm/stm32f103c8t6/startup_stm32f10x_md.o
HardFault_Handler                                 out/./arch/arm/stm32f103c8t6/stm32f10x_it.o
I2C1_ER_IRQHandler                                out/./arch/arm/stm32f103c8t6/startup_stm32f10x_md.o
I2C1_EV_IRQHandler                                out/./arch/arm/stm32f103c8t6/startup_stm32f10x_md.o
I2C2_ER_IRQHandler                                out/./arch/arm/stm32f103c8t6/startup_stm32f10x_md.o
I2C2_EV_IRQHandler                                out/./arch/arm/stm32f103c8t6/startup_stm32f10x_md.o
MemManage_Handler                                 out/./arch/arm/stm32f103c8t6/stm32f10x_it.o
NMI_Handler                                       out/./arch/arm/stm32f103c8t6/stm32f10x_it.o
PVD_IRQHandler                                    out/./arch/arm/stm32f103c8t6/startup_stm32f10x_md.o
PendSV_Handler                                    out/./arch/arm/stm32f103c8t6/startup_stm32f10x_md.o
RCC_IRQHandler                                    out/./arch/arm/stm32f103c8t6/startup_stm32f10x_md.o
RTCAlarm_IRQHandler                               out/./arch/arm/stm32f103c8t6/startup_stm32f10x_md.o
RTC_IRQHandler                                    out/./arch/arm/stm32f103c8t6/startup_stm32f10x_md.o
Receive1BUFF                                      out/./arch/arm/stm32f103c8t6/USART.o
Reset_Handler                                     out/./arch/arm/stm32f103c8t6/startup_stm32f10x_md.o
SPI1_IRQHandler                                   out/./arch/arm/stm32f103c8t6/startup_stm32f10x_md.o
SPI2_IRQHandler                                   out/./arch/arm/stm32f103c8t6/startup_stm32f10x_md.o
SVC_Handler                                       out/./arch/arm/stm32f103c8t6/stm32f10x_it.o
SysTick_Handler                                   out/./arch/arm/stm32f103c8t6/startup_stm32f10x_md.o
SystemCoreClock                                   out/./arch/arm/stm32f103c8t6/system_stm32f10x.o
SystemCoreClockUpdate                             out/./arch/arm/stm32f103c8t6/system_stm32f10x.o
SystemInit                                        out/./arch/arm/stm32f103c8t6/system_stm32f10x.o
                                                  out/./arch/arm/stm32f103c8t6/startup_stm32f10x_md.o
TAMPER_IRQHandler                                 out/./arch/arm/stm32f103c8t6/startup_stm32f10x_md.o
TIM1_BRK_IRQHandler                               out/./arch/arm/stm32f103c8t6/startup_stm32f10x_md.o
TIM1_CC_IRQHandler                                out/./arch/arm/stm32f103c8t6/startup_stm32f10x_md.o
TIM1_TRG_COM_IRQHandler                           out/./arch/arm/stm32f103c8t6/startup_stm32f10x_md.o
TIM1_UP_IRQHandler                                out/./arch/arm/stm32f103c8t6/startup_stm32f10x_md.o
TIM2_IRQHandler                                   out/./arch/arm/stm32f103c8t6/startup_stm32f10x_md.o
TIM3_IRQHandler                                   out/./arch/arm/stm32f103c8t6/startup_stm32f10x_md.o
TIM4_IRQHandler                                   out/./arch/arm/stm32f103c8t6/startup_stm32f10x_md.o
USART1_IRQHandler                                 out/./arch/arm/stm32f103c8t6/startup_stm32f10x_md.o
USART1_Init                                       out/./arch/arm/stm32f103c8t6/USART.o
                                                  out/main.o
USART1_PrintString                                out/./arch/arm/stm32f103c8t6/USART.o
                                                  out/main.o
USART1_ReCoun                                     out/./arch/arm/stm32f103c8t6/USART.o
USART2_IRQHandler                                 out/./arch/arm/stm32f103c8t6/startup_stm32f10x_md.o
USART3_IRQHandler                                 out/./arch/arm/stm32f103c8t6/startup_stm32f10x_md.o
USBWakeUp_IRQHandler                              out/./arch/arm/stm32f103c8t6/startup_stm32f10x_md.o
USB_HP_CAN1_TX_IRQHandler                         out/./arch/arm/stm32f103c8t6/startup_stm32f10x_md.o
USB_LP_CAN1_RX0_IRQHandler                        out/./arch/arm/stm32f103c8t6/startup_stm32f10x_md.o
UsageFault_Handler                                out/./arch/arm/stm32f103c8t6/stm32f10x_it.o
WWDG_IRQHandler                                   out/./arch/arm/stm32f103c8t6/startup_stm32f10x_md.o
__addsf3                                          c:/users/lisha/.eide/tools/gcc_arm/bin/../lib/gcc/arm-none-eabi/8.3.1\libgcc.a(_arm_addsubsf3.o)
__aeabi_f2uiz                                     c:/users/lisha/.eide/tools/gcc_arm/bin/../lib/gcc/arm-none-eabi/8.3.1\libgcc.a(_arm_fixunssfsi.o)
                                                  out/./arch/arm/stm32f103c8t6/USART.o
__aeabi_fadd                                      c:/users/lisha/.eide/tools/gcc_arm/bin/../lib/gcc/arm-none-eabi/8.3.1\libgcc.a(_arm_addsubsf3.o)
__aeabi_frsub                                     c:/users/lisha/.eide/tools/gcc_arm/bin/../lib/gcc/arm-none-eabi/8.3.1\libgcc.a(_arm_addsubsf3.o)
__aeabi_fsub                                      c:/users/lisha/.eide/tools/gcc_arm/bin/../lib/gcc/arm-none-eabi/8.3.1\libgcc.a(_arm_addsubsf3.o)
                                                  out/./arch/arm/stm32f103c8t6/USART.o
__aeabi_i2f                                       c:/users/lisha/.eide/tools/gcc_arm/bin/../lib/gcc/arm-none-eabi/8.3.1\libgcc.a(_arm_addsubsf3.o)
__aeabi_l2f                                       c:/users/lisha/.eide/tools/gcc_arm/bin/../lib/gcc/arm-none-eabi/8.3.1\libgcc.a(_arm_addsubsf3.o)
__aeabi_ui2f                                      c:/users/lisha/.eide/tools/gcc_arm/bin/../lib/gcc/arm-none-eabi/8.3.1\libgcc.a(_arm_addsubsf3.o)
                                                  out/./arch/arm/stm32f103c8t6/USART.o
__aeabi_ul2f                                      c:/users/lisha/.eide/tools/gcc_arm/bin/../lib/gcc/arm-none-eabi/8.3.1\libgcc.a(_arm_addsubsf3.o)
__atexit_recursive_mutex                          c:/users/lisha/.eide/tools/gcc_arm/bin/../lib/gcc/arm-none-eabi/8.3.1/../../../../arm-none-eabi/lib\libc.a(lib_a-__call_atexit.o)
                                                  c:/users/lisha/.eide/tools/gcc_arm/bin/../lib/gcc/arm-none-eabi/8.3.1/../../../../arm-none-eabi/lib\libc.a(lib_a-__atexit.o)
__bss_end__                                       c:/users/lisha/.eide/tools/gcc_arm/bin/../lib/gcc/arm-none-eabi/8.3.1/../../../../arm-none-eabi/lib/crt0.o
__bss_start__                                     c:/users/lisha/.eide/tools/gcc_arm/bin/../lib/gcc/arm-none-eabi/8.3.1/../../../../arm-none-eabi/lib/crt0.o
__call_exitprocs                                  c:/users/lisha/.eide/tools/gcc_arm/bin/../lib/gcc/arm-none-eabi/8.3.1/../../../../arm-none-eabi/lib\libc.a(lib_a-__call_atexit.o)
                                                  c:/users/lisha/.eide/tools/gcc_arm/bin/../lib/gcc/arm-none-eabi/8.3.1/../../../../arm-none-eabi/lib\libc.a(lib_a-exit.o)
__deregister_frame_info                           c:/users/lisha/.eide/tools/gcc_arm/bin/../lib/gcc/arm-none-eabi/8.3.1/crtbegin.o
__dso_handle                                      c:/users/lisha/.eide/tools/gcc_arm/bin/../lib/gcc/arm-none-eabi/8.3.1/crtbegin.o
__fini_array_end                                  c:/users/lisha/.eide/tools/gcc_arm/bin/../lib/gcc/arm-none-eabi/8.3.1/../../../../arm-none-eabi/lib\libc.a(lib_a-fini.o)
__fini_array_start                                c:/users/lisha/.eide/tools/gcc_arm/bin/../lib/gcc/arm-none-eabi/8.3.1/../../../../arm-none-eabi/lib\libc.a(lib_a-fini.o)
__fixunssfsi                                      c:/users/lisha/.eide/tools/gcc_arm/bin/../lib/gcc/arm-none-eabi/8.3.1\libgcc.a(_arm_fixunssfsi.o)
__floatdisf                                       c:/users/lisha/.eide/tools/gcc_arm/bin/../lib/gcc/arm-none-eabi/8.3.1\libgcc.a(_arm_addsubsf3.o)
__floatsisf                                       c:/users/lisha/.eide/tools/gcc_arm/bin/../lib/gcc/arm-none-eabi/8.3.1\libgcc.a(_arm_addsubsf3.o)
__floatundisf                                     c:/users/lisha/.eide/tools/gcc_arm/bin/../lib/gcc/arm-none-eabi/8.3.1\libgcc.a(_arm_addsubsf3.o)
__floatunsisf                                     c:/users/lisha/.eide/tools/gcc_arm/bin/../lib/gcc/arm-none-eabi/8.3.1\libgcc.a(_arm_addsubsf3.o)
__init_array_end                                  c:/users/lisha/.eide/tools/gcc_arm/bin/../lib/gcc/arm-none-eabi/8.3.1/../../../../arm-none-eabi/lib\libc.a(lib_a-init.o)
__init_array_start                                c:/users/lisha/.eide/tools/gcc_arm/bin/../lib/gcc/arm-none-eabi/8.3.1/../../../../arm-none-eabi/lib\libc.a(lib_a-init.o)
__libc_fini                                       c:/users/lisha/.eide/tools/gcc_arm/bin/../lib/gcc/arm-none-eabi/8.3.1/../../../../arm-none-eabi/lib\libc.a(lib_a-__call_atexit.o)
__libc_fini_array                                 c:/users/lisha/.eide/tools/gcc_arm/bin/../lib/gcc/arm-none-eabi/8.3.1/../../../../arm-none-eabi/lib\libc.a(lib_a-fini.o)
                                                  c:/users/lisha/.eide/tools/gcc_arm/bin/../lib/gcc/arm-none-eabi/8.3.1/../../../../arm-none-eabi/lib\libc.a(lib_a-__call_atexit.o)
                                                  c:/users/lisha/.eide/tools/gcc_arm/bin/../lib/gcc/arm-none-eabi/8.3.1/../../../../arm-none-eabi/lib/crt0.o
__libc_init_array                                 c:/users/lisha/.eide/tools/gcc_arm/bin/../lib/gcc/arm-none-eabi/8.3.1/../../../../arm-none-eabi/lib\libc.a(lib_a-init.o)
                                                  out/./arch/arm/stm32f103c8t6/startup_stm32f10x_md.o
                                                  c:/users/lisha/.eide/tools/gcc_arm/bin/../lib/gcc/arm-none-eabi/8.3.1/../../../../arm-none-eabi/lib/crt0.o
__lock___arc4random_mutex                         c:/users/lisha/.eide/tools/gcc_arm/bin/../lib/gcc/arm-none-eabi/8.3.1/../../../../arm-none-eabi/lib\libc.a(lib_a-lock.o)
__lock___at_quick_exit_mutex                      c:/users/lisha/.eide/tools/gcc_arm/bin/../lib/gcc/arm-none-eabi/8.3.1/../../../../arm-none-eabi/lib\libc.a(lib_a-lock.o)
__lock___atexit_recursive_mutex                   c:/users/lisha/.eide/tools/gcc_arm/bin/../lib/gcc/arm-none-eabi/8.3.1/../../../../arm-none-eabi/lib\libc.a(lib_a-lock.o)
                                                  c:/users/lisha/.eide/tools/gcc_arm/bin/../lib/gcc/arm-none-eabi/8.3.1/../../../../arm-none-eabi/lib\libc.a(lib_a-__call_atexit.o)
__lock___dd_hash_mutex                            c:/users/lisha/.eide/tools/gcc_arm/bin/../lib/gcc/arm-none-eabi/8.3.1/../../../../arm-none-eabi/lib\libc.a(lib_a-lock.o)
__lock___env_recursive_mutex                      c:/users/lisha/.eide/tools/gcc_arm/bin/../lib/gcc/arm-none-eabi/8.3.1/../../../../arm-none-eabi/lib\libc.a(lib_a-lock.o)
__lock___malloc_recursive_mutex                   c:/users/lisha/.eide/tools/gcc_arm/bin/../lib/gcc/arm-none-eabi/8.3.1/../../../../arm-none-eabi/lib\libc.a(lib_a-lock.o)
__lock___sfp_recursive_mutex                      c:/users/lisha/.eide/tools/gcc_arm/bin/../lib/gcc/arm-none-eabi/8.3.1/../../../../arm-none-eabi/lib\libc.a(lib_a-lock.o)
__lock___sinit_recursive_mutex                    c:/users/lisha/.eide/tools/gcc_arm/bin/../lib/gcc/arm-none-eabi/8.3.1/../../../../arm-none-eabi/lib\libc.a(lib_a-lock.o)
__lock___tz_mutex                                 c:/users/lisha/.eide/tools/gcc_arm/bin/../lib/gcc/arm-none-eabi/8.3.1/../../../../arm-none-eabi/lib\libc.a(lib_a-lock.o)
__preinit_array_end                               c:/users/lisha/.eide/tools/gcc_arm/bin/../lib/gcc/arm-none-eabi/8.3.1/../../../../arm-none-eabi/lib\libc.a(lib_a-init.o)
__preinit_array_start                             c:/users/lisha/.eide/tools/gcc_arm/bin/../lib/gcc/arm-none-eabi/8.3.1/../../../../arm-none-eabi/lib\libc.a(lib_a-init.o)
__register_exitproc                               c:/users/lisha/.eide/tools/gcc_arm/bin/../lib/gcc/arm-none-eabi/8.3.1/../../../../arm-none-eabi/lib\libc.a(lib_a-__atexit.o)
                                                  c:/users/lisha/.eide/tools/gcc_arm/bin/../lib/gcc/arm-none-eabi/8.3.1/../../../../arm-none-eabi/lib\libc.a(lib_a-atexit.o)
__register_frame_info                             c:/users/lisha/.eide/tools/gcc_arm/bin/../lib/gcc/arm-none-eabi/8.3.1/crtbegin.o
__retarget_lock_acquire                           c:/users/lisha/.eide/tools/gcc_arm/bin/../lib/gcc/arm-none-eabi/8.3.1/../../../../arm-none-eabi/lib\libc.a(lib_a-lock.o)
__retarget_lock_acquire_recursive                 c:/users/lisha/.eide/tools/gcc_arm/bin/../lib/gcc/arm-none-eabi/8.3.1/../../../../arm-none-eabi/lib\libc.a(lib_a-lock.o)
                                                  c:/users/lisha/.eide/tools/gcc_arm/bin/../lib/gcc/arm-none-eabi/8.3.1/../../../../arm-none-eabi/lib\libc.a(lib_a-__atexit.o)
                                                  c:/users/lisha/.eide/tools/gcc_arm/bin/../lib/gcc/arm-none-eabi/8.3.1/../../../../arm-none-eabi/lib\libc.a(lib_a-__call_atexit.o)
__retarget_lock_close                             c:/users/lisha/.eide/tools/gcc_arm/bin/../lib/gcc/arm-none-eabi/8.3.1/../../../../arm-none-eabi/lib\libc.a(lib_a-lock.o)
__retarget_lock_close_recursive                   c:/users/lisha/.eide/tools/gcc_arm/bin/../lib/gcc/arm-none-eabi/8.3.1/../../../../arm-none-eabi/lib\libc.a(lib_a-lock.o)
__retarget_lock_init                              c:/users/lisha/.eide/tools/gcc_arm/bin/../lib/gcc/arm-none-eabi/8.3.1/../../../../arm-none-eabi/lib\libc.a(lib_a-lock.o)
__retarget_lock_init_recursive                    c:/users/lisha/.eide/tools/gcc_arm/bin/../lib/gcc/arm-none-eabi/8.3.1/../../../../arm-none-eabi/lib\libc.a(lib_a-lock.o)
__retarget_lock_release                           c:/users/lisha/.eide/tools/gcc_arm/bin/../lib/gcc/arm-none-eabi/8.3.1/../../../../arm-none-eabi/lib\libc.a(lib_a-lock.o)
__retarget_lock_release_recursive                 c:/users/lisha/.eide/tools/gcc_arm/bin/../lib/gcc/arm-none-eabi/8.3.1/../../../../arm-none-eabi/lib\libc.a(lib_a-lock.o)
                                                  c:/users/lisha/.eide/tools/gcc_arm/bin/../lib/gcc/arm-none-eabi/8.3.1/../../../../arm-none-eabi/lib\libc.a(lib_a-__atexit.o)
                                                  c:/users/lisha/.eide/tools/gcc_arm/bin/../lib/gcc/arm-none-eabi/8.3.1/../../../../arm-none-eabi/lib\libc.a(lib_a-__call_atexit.o)
__retarget_lock_try_acquire                       c:/users/lisha/.eide/tools/gcc_arm/bin/../lib/gcc/arm-none-eabi/8.3.1/../../../../arm-none-eabi/lib\libc.a(lib_a-lock.o)
__retarget_lock_try_acquire_recursive             c:/users/lisha/.eide/tools/gcc_arm/bin/../lib/gcc/arm-none-eabi/8.3.1/../../../../arm-none-eabi/lib\libc.a(lib_a-lock.o)
__stack                                           c:/users/lisha/.eide/tools/gcc_arm/bin/../lib/gcc/arm-none-eabi/8.3.1/../../../../arm-none-eabi/lib/crt0.o
__subsf3                                          c:/users/lisha/.eide/tools/gcc_arm/bin/../lib/gcc/arm-none-eabi/8.3.1\libgcc.a(_arm_addsubsf3.o)
_ebss                                             out/./arch/arm/stm32f103c8t6/startup_stm32f10x_md.o
_edata                                            out/./arch/arm/stm32f103c8t6/startup_stm32f10x_md.o
_estack                                           out/./arch/arm/stm32f103c8t6/startup_stm32f10x_md.o
_exit                                             c:/users/lisha/.eide/tools/gcc_arm/bin/../lib/gcc/arm-none-eabi/8.3.1/../../../../arm-none-eabi/lib\libnosys.a(_exit.o)
                                                  c:/users/lisha/.eide/tools/gcc_arm/bin/../lib/gcc/arm-none-eabi/8.3.1/../../../../arm-none-eabi/lib\libc.a(lib_a-exit.o)
_fini                                             c:/users/lisha/.eide/tools/gcc_arm/bin/../lib/gcc/arm-none-eabi/8.3.1/crti.o
                                                  c:/users/lisha/.eide/tools/gcc_arm/bin/../lib/gcc/arm-none-eabi/8.3.1/../../../../arm-none-eabi/lib\libc.a(lib_a-fini.o)
_global_impure_ptr                                c:/users/lisha/.eide/tools/gcc_arm/bin/../lib/gcc/arm-none-eabi/8.3.1/../../../../arm-none-eabi/lib\libc.a(lib_a-impure.o)
                                                  c:/users/lisha/.eide/tools/gcc_arm/bin/../lib/gcc/arm-none-eabi/8.3.1/../../../../arm-none-eabi/lib\libc.a(lib_a-__atexit.o)
                                                  c:/users/lisha/.eide/tools/gcc_arm/bin/../lib/gcc/arm-none-eabi/8.3.1/../../../../arm-none-eabi/lib\libc.a(lib_a-__call_atexit.o)
                                                  c:/users/lisha/.eide/tools/gcc_arm/bin/../lib/gcc/arm-none-eabi/8.3.1/../../../../arm-none-eabi/lib\libc.a(lib_a-exit.o)
_impure_ptr                                       c:/users/lisha/.eide/tools/gcc_arm/bin/../lib/gcc/arm-none-eabi/8.3.1/../../../../arm-none-eabi/lib\libc.a(lib_a-impure.o)
_init                                             c:/users/lisha/.eide/tools/gcc_arm/bin/../lib/gcc/arm-none-eabi/8.3.1/crti.o
                                                  c:/users/lisha/.eide/tools/gcc_arm/bin/../lib/gcc/arm-none-eabi/8.3.1/../../../../arm-none-eabi/lib\libc.a(lib_a-init.o)
_mainCRTStartup                                   c:/users/lisha/.eide/tools/gcc_arm/bin/../lib/gcc/arm-none-eabi/8.3.1/../../../../arm-none-eabi/lib/crt0.o
_sbss                                             out/./arch/arm/stm32f103c8t6/startup_stm32f10x_md.o
_sdata                                            out/./arch/arm/stm32f103c8t6/startup_stm32f10x_md.o
_sidata                                           out/./arch/arm/stm32f103c8t6/startup_stm32f10x_md.o
_start                                            c:/users/lisha/.eide/tools/gcc_arm/bin/../lib/gcc/arm-none-eabi/8.3.1/../../../../arm-none-eabi/lib/crt0.o
atexit                                            c:/users/lisha/.eide/tools/gcc_arm/bin/../lib/gcc/arm-none-eabi/8.3.1/../../../../arm-none-eabi/lib\libc.a(lib_a-atexit.o)
                                                  c:/users/lisha/.eide/tools/gcc_arm/bin/../lib/gcc/arm-none-eabi/8.3.1/../../../../arm-none-eabi/lib\libc.a(lib_a-__call_atexit.o)
                                                  c:/users/lisha/.eide/tools/gcc_arm/bin/../lib/gcc/arm-none-eabi/8.3.1/../../../../arm-none-eabi/lib/crt0.o
exit                                              c:/users/lisha/.eide/tools/gcc_arm/bin/../lib/gcc/arm-none-eabi/8.3.1/../../../../arm-none-eabi/lib\libc.a(lib_a-exit.o)
                                                  c:/users/lisha/.eide/tools/gcc_arm/bin/../lib/gcc/arm-none-eabi/8.3.1/../../../../arm-none-eabi/lib/crt0.o
g_pfnVectors                                      out/./arch/arm/stm32f103c8t6/startup_stm32f10x_md.o
hardware_init_hook                                c:/users/lisha/.eide/tools/gcc_arm/bin/../lib/gcc/arm-none-eabi/8.3.1/../../../../arm-none-eabi/lib/crt0.o
main                                              out/main.o
                                                  out/./arch/arm/stm32f103c8t6/startup_stm32f10x_md.o
                                                  c:/users/lisha/.eide/tools/gcc_arm/bin/../lib/gcc/arm-none-eabi/8.3.1/../../../../arm-none-eabi/lib/crt0.o
memset                                            c:/users/lisha/.eide/tools/gcc_arm/bin/../lib/gcc/arm-none-eabi/8.3.1/../../../../arm-none-eabi/lib\libc.a(lib_a-memset.o)
                                                  c:/users/lisha/.eide/tools/gcc_arm/bin/../lib/gcc/arm-none-eabi/8.3.1/../../../../arm-none-eabi/lib/crt0.o
software_init_hook                                c:/users/lisha/.eide/tools/gcc_arm/bin/../lib/gcc/arm-none-eabi/8.3.1/../../../../arm-none-eabi/lib/crt0.o
